; ModuleID = '19/2.c'
source_filename = "19/2.c"
target datalayout = "e-m:e-p270:32:32-p271:32:32-p272:64:64-i64:64-f80:128-n8:16:32:64-S128"
target triple = "x86_64-pc-linux-gnu"

@.str = private unnamed_addr constant [3 x i8] c"%s\00", align 1
@.str.1 = private unnamed_addr constant [3 x i8] c"%c\00", align 1
@.str.2 = private unnamed_addr constant [2 x i8] c" \00", align 1

; Function Attrs: noinline nounwind uwtable
define dso_local i32 @main() #0 {
  %1 = alloca i32, align 4
  %2 = alloca i8, align 1
  %3 = alloca [100 x i8*], align 16
  %4 = alloca [100 x i8], align 16
  %5 = alloca [100 x i8], align 16
  %6 = alloca i32, align 4
  %7 = alloca i32, align 4
  store i32 0, i32* %1, align 4
  store i8 48, i8* %2, align 1
  store i32 0, i32* %6, align 4
  br label %8

8:                                                ; preds = %12, %0
  %9 = load i8, i8* %2, align 1
  %10 = sext i8 %9 to i32
  %11 = icmp ne i32 %10, 10
  br i1 %11, label %12, label %24

12:                                               ; preds = %8
  %13 = call noalias i8* @malloc(i64 100) #4
  %14 = load i32, i32* %6, align 4
  %15 = sext i32 %14 to i64
  %16 = getelementptr inbounds [100 x i8*], [100 x i8*]* %3, i64 0, i64 %15
  store i8* %13, i8** %16, align 8
  %17 = load i32, i32* %6, align 4
  %18 = add nsw i32 %17, 1
  store i32 %18, i32* %6, align 4
  %19 = sext i32 %17 to i64
  %20 = getelementptr inbounds [100 x i8*], [100 x i8*]* %3, i64 0, i64 %19
  %21 = load i8*, i8** %20, align 8
  %22 = call i32 (i8*, ...) @__isoc99_scanf(i8* getelementptr inbounds ([3 x i8], [3 x i8]* @.str, i64 0, i64 0), i8* %21)
  %23 = call i32 (i8*, ...) @__isoc99_scanf(i8* getelementptr inbounds ([3 x i8], [3 x i8]* @.str.1, i64 0, i64 0), i8* %2)
  br label %8

24:                                               ; preds = %8
  %25 = getelementptr inbounds [100 x i8], [100 x i8]* %4, i64 0, i64 0
  %26 = call i32 (i8*, ...) @__isoc99_scanf(i8* getelementptr inbounds ([3 x i8], [3 x i8]* @.str, i64 0, i64 0), i8* %25)
  %27 = getelementptr inbounds [100 x i8], [100 x i8]* %5, i64 0, i64 0
  %28 = call i32 (i8*, ...) @__isoc99_scanf(i8* getelementptr inbounds ([3 x i8], [3 x i8]* @.str, i64 0, i64 0), i8* %27)
  store i32 0, i32* %7, align 4
  br label %29

29:                                               ; preds = %59, %24
  %30 = load i32, i32* %7, align 4
  %31 = load i32, i32* %6, align 4
  %32 = icmp slt i32 %30, %31
  br i1 %32, label %33, label %62

33:                                               ; preds = %29
  %34 = getelementptr inbounds [100 x i8], [100 x i8]* %4, i64 0, i64 0
  %35 = load i32, i32* %7, align 4
  %36 = sext i32 %35 to i64
  %37 = getelementptr inbounds [100 x i8*], [100 x i8*]* %3, i64 0, i64 %36
  %38 = load i8*, i8** %37, align 8
  %39 = call i32 @strcmp(i8* %34, i8* %38) #5
  %40 = icmp eq i32 %39, 0
  br i1 %40, label %41, label %46

41:                                               ; preds = %33
  %42 = getelementptr inbounds [100 x i8], [100 x i8]* %5, i64 0, i64 0
  %43 = load i32, i32* %7, align 4
  %44 = sext i32 %43 to i64
  %45 = getelementptr inbounds [100 x i8*], [100 x i8*]* %3, i64 0, i64 %44
  store i8* %42, i8** %45, align 8
  br label %46

46:                                               ; preds = %41, %33
  %47 = load i32, i32* %7, align 4
  %48 = sext i32 %47 to i64
  %49 = getelementptr inbounds [100 x i8*], [100 x i8*]* %3, i64 0, i64 %48
  %50 = load i8*, i8** %49, align 8
  %51 = call i32 (i8*, ...) @printf(i8* getelementptr inbounds ([3 x i8], [3 x i8]* @.str, i64 0, i64 0), i8* %50)
  %52 = load i32, i32* %7, align 4
  %53 = load i32, i32* %6, align 4
  %54 = sub nsw i32 %53, 1
  %55 = icmp slt i32 %52, %54
  br i1 %55, label %56, label %58

56:                                               ; preds = %46
  %57 = call i32 (i8*, ...) @printf(i8* getelementptr inbounds ([2 x i8], [2 x i8]* @.str.2, i64 0, i64 0))
  br label %58

58:                                               ; preds = %56, %46
  br label %59

59:                                               ; preds = %58
  %60 = load i32, i32* %7, align 4
  %61 = add nsw i32 %60, 1
  store i32 %61, i32* %7, align 4
  br label %29

62:                                               ; preds = %29
  ret i32 0
}

; Function Attrs: nounwind
declare dso_local noalias i8* @malloc(i64) #1

declare dso_local i32 @__isoc99_scanf(i8*, ...) #2

; Function Attrs: nounwind readonly
declare dso_local i32 @strcmp(i8*, i8*) #3

declare dso_local i32 @printf(i8*, ...) #2


!llvm.module.flags = !{!0}
!llvm.ident = !{!1}

!0 = !{i32 1, !"wchar_size", i32 4}
!1 = !{!"clang version 10.0.0-4ubuntu1 "}
